(dp0
S'soap_lib'
p1
S'2'
p2
sS'request_log'
p3
S'y'
p4
sS'log_home'
p5
S'/home/goshawk/Projects/aranciulla/keygrabber/adwords/adwords_api_python_14.2.1/logs'
p6
sS'xml_parser'
p7
S'1'
p8
sS'xml_log'
p9
g4
sS'debug'
p10
g4
sS'home'
p11
S'/home/goshawk/Projects/aranciulla/keygrabber/adwords/adwords_api_python_14.2.1'
p12
s.