(dp0
S'soap_lib'
p1
S'2'
p2
sS'request_log'
p3
S'n'
p4
sS'log_home'
p5
S'/home/goshawk/Projects/aranciulla/aralib/adwordsApi/logs'
p6
sS'xml_parser'
p7
g2
sS'xml_log'
p8
g4
sS'debug'
p9
g4
sS'home'
p10
S'/home/goshawk/Projects/aranciulla/aralib/adwordsApi'
p11
s.